target datalayout = "e-m:e-p270:32:32-p271:32:32-p272:64:64-i64:64-i128:128-f80:128-n8:16:32:64-S128"
target triple = "x86_64-unknown-linux-gnu"

%"class.euf::enode" = type { ptr, i8, i8, i8, i8, i8, i8, i8, i8, i8, i32, i32, i32, i32, i32, i32, %class.ptr_vector, ptr, ptr, ptr, ptr, %class.id_var_list, %"class.euf::justification", %"class.euf::justification", i32, i8, %class.approx_set, %class.approx_set, [0 x ptr] }
%class.ptr_vector = type { %class.vector }
%class.vector = type { ptr }
%class.id_var_list = type { i32, ptr }
%"class.euf::justification" = type { i32, %union.anon, %union.anon.0 }
%union.anon = type { ptr }
%union.anon.0 = type { ptr }
%class.approx_set = type { %class.approx_set_tpl }
%class.approx_set_tpl = type { i64 }
%"class.euf::etable" = type { ptr, i8, %class.ptr_vector.1, %class.map }
%class.ptr_vector.1 = type { %class.vector.2 }
%class.vector.2 = type { ptr }
%class.map = type { %class.table2map }
%class.table2map = type { %class.core_hashtable }
%class.core_hashtable = type <{ ptr, i32, i32, i32, [4 x i8] }>
%"struct.std::pair.39" = type <{ ptr, i8, [7 x i8] }>

; Function Attrs: mustprogress nounwind uwtable
define linkonce_odr hidden noundef nonnull align 8 dereferenceable(8) ptr @_ZN6vectorIPvLb0EjEixEj(ptr noundef nonnull align 8 dereferenceable(8) %this, i32 noundef %idx) #4 comdat align 2 {
entry:
  %this.addr = alloca ptr, align 8
  %idx.addr = alloca i32, align 4
  store ptr %this, ptr %this.addr, align 8
  store i32 %idx, ptr %idx.addr, align 4
  %this1 = load ptr, ptr %this.addr, align 8
  %m_data = getelementptr inbounds %class.vector.2, ptr %this1, i32 0, i32 0
  %0 = load ptr, ptr %m_data, align 8
  %1 = load i32, ptr %idx.addr, align 4
  %idxprom = zext i32 %1 to i64
  %arrayidx = getelementptr inbounds ptr, ptr %0, i64 %idxprom
  ret ptr %arrayidx
}

; Function Attrs: mustprogress nounwind uwtable
define linkonce_odr hidden noundef i32 @_ZNK3euf5enode12get_table_idEv(ptr noundef nonnull align 8 dereferenceable(176) %this) #4 comdat align 2 {
entry:
  %this.addr = alloca ptr, align 8
  store ptr %this, ptr %this.addr, align 8
  %this1 = load ptr, ptr %this.addr, align 8
  %m_table_id = getelementptr inbounds %"class.euf::enode", ptr %this1, i32 0, i32 14
  %0 = load i32, ptr %m_table_id, align 4
  ret i32 %0
}

; Function Attrs: mustprogress nounwind uwtable
define linkonce_odr hidden void @_ZNSt4pairIPN3euf5enodeEbEC2IRS2_RbTnNSt9enable_ifIXaaclsr5_PCCPE22_MoveConstructiblePairIT_T0_EEclsr5_PCCPE30_ImplicitlyMoveConvertiblePairIS8_S9_EEEbE4typeELb1EEEOS8_OS9_(ptr noundef nonnull align 8 dereferenceable(9) %this, ptr noundef nonnull align 8 dereferenceable(8) %__x, ptr noundef nonnull align 1 dereferenceable(1) %__y) unnamed_addr #4 comdat align 2 {
entry:
  %this.addr = alloca ptr, align 8
  %__x.addr = alloca ptr, align 8
  %__y.addr = alloca ptr, align 8
  store ptr %this, ptr %this.addr, align 8
  store ptr %__x, ptr %__x.addr, align 8
  store ptr %__y, ptr %__y.addr, align 8
  %this1 = load ptr, ptr %this.addr, align 8
  %first = getelementptr inbounds %"struct.std::pair.39", ptr %this1, i32 0, i32 0
  %0 = load ptr, ptr %__x.addr, align 8
  %1 = load ptr, ptr %0, align 8
  store ptr %1, ptr %first, align 8
  %second = getelementptr inbounds %"struct.std::pair.39", ptr %this1, i32 0, i32 1
  %2 = load ptr, ptr %__y.addr, align 8
  %3 = load i8, ptr %2, align 1
  %tobool = trunc i8 %3 to i1
  %frombool = zext i1 %tobool to i8
  store i8 %frombool, ptr %second, align 8
  ret void
}

; Function Attrs: mustprogress nounwind uwtable
define linkonce_odr hidden void @_ZNSt4pairIPN3euf5enodeEbEC2IRS2_bTnNSt9enable_ifIXaaclsr5_PCCPE22_MoveConstructiblePairIT_T0_EEclsr5_PCCPE30_ImplicitlyMoveConvertiblePairIS7_S8_EEEbE4typeELb1EEEOS7_OS8_(ptr noundef nonnull align 8 dereferenceable(9) %this, ptr noundef nonnull align 8 dereferenceable(8) %__x, ptr noundef nonnull align 1 dereferenceable(1) %__y) unnamed_addr #4 comdat align 2 {
entry:
  %this.addr = alloca ptr, align 8
  %__x.addr = alloca ptr, align 8
  %__y.addr = alloca ptr, align 8
  store ptr %this, ptr %this.addr, align 8
  store ptr %__x, ptr %__x.addr, align 8
  store ptr %__y, ptr %__y.addr, align 8
  %this1 = load ptr, ptr %this.addr, align 8
  %first = getelementptr inbounds %"struct.std::pair.39", ptr %this1, i32 0, i32 0
  %0 = load ptr, ptr %__x.addr, align 8
  %1 = load ptr, ptr %0, align 8
  store ptr %1, ptr %first, align 8
  %second = getelementptr inbounds %"struct.std::pair.39", ptr %this1, i32 0, i32 1
  %2 = load ptr, ptr %__y.addr, align 8
  %3 = load i8, ptr %2, align 1
  %tobool = trunc i8 %3 to i1
  %frombool = zext i1 %tobool to i8
  store i8 %frombool, ptr %second, align 8
  ret void
}

; Function Attrs: mustprogress uwtable
define linkonce_odr hidden noundef ptr @_ZN3euf6etable9get_tableEPNS_5enodeE(ptr noundef nonnull align 8 dereferenceable(48) %this, ptr noundef %n) #5 comdat align 2 {
entry:
  %this.addr = alloca ptr, align 8
  %n.addr = alloca ptr, align 8
  %tid = alloca i32, align 4
  store ptr %this, ptr %this.addr, align 8
  store ptr %n, ptr %n.addr, align 8
  %this1 = load ptr, ptr %this.addr, align 8
  %0 = load ptr, ptr %n.addr, align 8
  %call = call noundef i32 @_ZNK3euf5enode12get_table_idEv(ptr noundef nonnull align 8 dereferenceable(176) %0)
  store i32 %call, ptr %tid, align 4
  %1 = load i32, ptr %tid, align 4
  %cmp = icmp eq i32 %1, -1
  br i1 %cmp, label %if.then, label %if.end

if.then:                                          ; preds = %entry
  %2 = load ptr, ptr %n.addr, align 8
  %call2 = call noundef i32 @_ZN3euf6etable12set_table_idEPNS_5enodeE(ptr noundef nonnull align 8 dereferenceable(48) %this1, ptr noundef %2)
  store i32 %call2, ptr %tid, align 4
  br label %if.end

if.end:                                           ; preds = %if.then, %entry
  %m_tables = getelementptr inbounds %"class.euf::etable", ptr %this1, i32 0, i32 2
  %3 = load i32, ptr %tid, align 4
  %call3 = call noundef nonnull align 8 dereferenceable(8) ptr @_ZN6vectorIPvLb0EjEixEj(ptr noundef nonnull align 8 dereferenceable(8) %m_tables, i32 noundef %3)
  %4 = load ptr, ptr %call3, align 8
  ret ptr %4
}

; Function Attrs: mustprogress uwtable
define hidden { ptr, i8 } @_ZN3euf6etable6insertEPNS_5enodeE(ptr noundef nonnull align 8 dereferenceable(48) %this, ptr noundef %n) #5 align 2 {
entry:
  %retval = alloca %"struct.std::pair.39", align 8
  %this.addr = alloca ptr, align 8
  %n.addr = alloca ptr, align 8
  %n_prime = alloca ptr, align 8
  %t = alloca ptr, align 8
  %ref.tmp = alloca i8, align 1
  %ref.tmp7 = alloca i8, align 1
  %ref.tmp14 = alloca i8, align 1
  store ptr %this, ptr %this.addr, align 8
  store ptr %n, ptr %n.addr, align 8
  %this1 = load ptr, ptr %this.addr, align 8
  %0 = load ptr, ptr %n.addr, align 8
  %call = call noundef ptr @_ZN3euf6etable9get_tableEPNS_5enodeE(ptr noundef nonnull align 8 dereferenceable(48) %this1, ptr noundef %0)
  store ptr %call, ptr %t, align 8
  %1 = load ptr, ptr %t, align 8
  %2 = ptrtoint ptr %1 to i64
  %and = and i64 %2, 7
  %conv = trunc i64 %and to i32
  switch i32 %conv, label %sw.default [
    i32 0, label %sw.bb
    i32 1, label %sw.bb4
    i32 2, label %sw.bb8
  ]

sw.bb:                                            ; preds = %entry
  %3 = load ptr, ptr %t, align 8
  %4 = ptrtoint ptr %3 to i64
  %and2 = and i64 %4, -8
  %5 = inttoptr i64 %and2 to ptr
  %call3 = call noundef nonnull align 8 dereferenceable(8) ptr @_ZN10chashtableIPN3euf5enodeENS0_6etable13cg_unary_hashENS3_11cg_unary_eqEE19insert_if_not_thereERKS2_(ptr noundef nonnull align 8 dereferenceable(64) %5, ptr noundef nonnull align 8 dereferenceable(8) %n.addr)
  %6 = load ptr, ptr %call3, align 8
  store ptr %6, ptr %n_prime, align 8
  store i8 0, ptr %ref.tmp, align 1
  call void @_ZNSt4pairIPN3euf5enodeEbEC2IRS2_bTnNSt9enable_ifIXaaclsr5_PCCPE22_MoveConstructiblePairIT_T0_EEclsr5_PCCPE30_ImplicitlyMoveConvertiblePairIS7_S8_EEEbE4typeELb1EEEOS7_OS8_(ptr noundef nonnull align 8 dereferenceable(9) %retval, ptr noundef nonnull align 8 dereferenceable(8) %n_prime, ptr noundef nonnull align 1 dereferenceable(1) %ref.tmp)
  br label %return

sw.bb4:                                           ; preds = %entry
  %7 = load ptr, ptr %t, align 8
  %8 = ptrtoint ptr %7 to i64
  %and5 = and i64 %8, -8
  %9 = inttoptr i64 %and5 to ptr
  %call6 = call noundef nonnull align 8 dereferenceable(8) ptr @_ZN10chashtableIPN3euf5enodeENS0_6etable14cg_binary_hashENS3_12cg_binary_eqEE19insert_if_not_thereERKS2_(ptr noundef nonnull align 8 dereferenceable(64) %9, ptr noundef nonnull align 8 dereferenceable(8) %n.addr)
  %10 = load ptr, ptr %call6, align 8
  store ptr %10, ptr %n_prime, align 8
  store i8 0, ptr %ref.tmp7, align 1
  call void @_ZNSt4pairIPN3euf5enodeEbEC2IRS2_bTnNSt9enable_ifIXaaclsr5_PCCPE22_MoveConstructiblePairIT_T0_EEclsr5_PCCPE30_ImplicitlyMoveConvertiblePairIS7_S8_EEEbE4typeELb1EEEOS7_OS8_(ptr noundef nonnull align 8 dereferenceable(9) %retval, ptr noundef nonnull align 8 dereferenceable(8) %n_prime, ptr noundef nonnull align 1 dereferenceable(1) %ref.tmp7)
  br label %return

sw.bb8:                                           ; preds = %entry
  %m_commutativity = getelementptr inbounds %"class.euf::etable", ptr %this1, i32 0, i32 1
  store i8 0, ptr %m_commutativity, align 8
  %11 = load ptr, ptr %t, align 8
  %12 = ptrtoint ptr %11 to i64
  %and9 = and i64 %12, -8
  %13 = inttoptr i64 %and9 to ptr
  %call10 = call noundef nonnull align 8 dereferenceable(8) ptr @_ZN10chashtableIPN3euf5enodeENS0_6etable12cg_comm_hashENS3_10cg_comm_eqEE19insert_if_not_thereERKS2_(ptr noundef nonnull align 8 dereferenceable(72) %13, ptr noundef nonnull align 8 dereferenceable(8) %n.addr)
  %14 = load ptr, ptr %call10, align 8
  store ptr %14, ptr %n_prime, align 8
  %m_commutativity11 = getelementptr inbounds %"class.euf::etable", ptr %this1, i32 0, i32 1
  call void @_ZNSt4pairIPN3euf5enodeEbEC2IRS2_RbTnNSt9enable_ifIXaaclsr5_PCCPE22_MoveConstructiblePairIT_T0_EEclsr5_PCCPE30_ImplicitlyMoveConvertiblePairIS8_S9_EEEbE4typeELb1EEEOS8_OS9_(ptr noundef nonnull align 8 dereferenceable(9) %retval, ptr noundef nonnull align 8 dereferenceable(8) %n_prime, ptr noundef nonnull align 1 dereferenceable(1) %m_commutativity11)
  br label %return

sw.default:                                       ; preds = %entry
  %15 = load ptr, ptr %t, align 8
  %16 = ptrtoint ptr %15 to i64
  %and12 = and i64 %16, -8
  %17 = inttoptr i64 %and12 to ptr
  %call13 = call noundef nonnull align 8 dereferenceable(8) ptr @_ZN10chashtableIPN3euf5enodeENS0_6etable7cg_hashENS3_5cg_eqEE19insert_if_not_thereERKS2_(ptr noundef nonnull align 8 dereferenceable(64) %17, ptr noundef nonnull align 8 dereferenceable(8) %n.addr)
  %18 = load ptr, ptr %call13, align 8
  store ptr %18, ptr %n_prime, align 8
  store i8 0, ptr %ref.tmp14, align 1
  call void @_ZNSt4pairIPN3euf5enodeEbEC2IRS2_bTnNSt9enable_ifIXaaclsr5_PCCPE22_MoveConstructiblePairIT_T0_EEclsr5_PCCPE30_ImplicitlyMoveConvertiblePairIS7_S8_EEEbE4typeELb1EEEOS7_OS8_(ptr noundef nonnull align 8 dereferenceable(9) %retval, ptr noundef nonnull align 8 dereferenceable(8) %n_prime, ptr noundef nonnull align 1 dereferenceable(1) %ref.tmp14)
  br label %return

return:                                           ; preds = %sw.default, %sw.bb8, %sw.bb4, %sw.bb
  %19 = load { ptr, i8 }, ptr %retval, align 8
  ret { ptr, i8 } %19
}