; Function Attrs: mustprogress uwtable
define hidden { ptr, i8 } @_ZN3euf6etable6insertEPNS_5enodeE(ptr noundef nonnull align 8 dereferenceable(48) %this, ptr noundef %n) local_unnamed_addr #4 align 2 {
entry:
  %n.addr = alloca ptr, align 8
  store ptr %n, ptr %n.addr, align 8
  %m_table_id.i.i = getelementptr inbounds i8, ptr %n, i64 36
  %0 = load i32, ptr %m_table_id.i.i, align 4
  %cmp.i = icmp eq i32 %0, -1
  br i1 %cmp.i, label %if.then.i, label %_ZN3euf6etable9get_tableEPNS_5enodeE.exit

if.then.i:                                        ; preds = %entry
  %call2.i = tail call noundef i32 @_ZN3euf6etable12set_table_idEPNS_5enodeE(ptr noundef nonnull align 8 dereferenceable(48) %this, ptr noundef nonnull %n)
  br label %_ZN3euf6etable9get_tableEPNS_5enodeE.exit

_ZN3euf6etable9get_tableEPNS_5enodeE.exit:        ; preds = %entry, %if.then.i
  %tid.0.i = phi i32 [ %call2.i, %if.then.i ], [ %0, %entry ]
  %m_tables.i = getelementptr inbounds i8, ptr %this, i64 16
  %1 = load ptr, ptr %m_tables.i, align 8
  %idxprom.i.i = zext i32 %tid.0.i to i64
  %arrayidx.i.i = getelementptr inbounds ptr, ptr %1, i64 %idxprom.i.i
  %2 = load ptr, ptr %arrayidx.i.i, align 8
  %3 = ptrtoint ptr %2 to i64
  %4 = trunc i64 %3 to i32
  %conv = and i32 %4, 7
  switch i32 %conv, label %sw.default [
    i32 0, label %sw.bb
    i32 1, label %sw.bb4
    i32 2, label %sw.bb8
  ]

sw.bb:                                            ; preds = %_ZN3euf6etable9get_tableEPNS_5enodeE.exit
  %and2 = and i64 %3, -8
  %5 = inttoptr i64 %and2 to ptr
  %call3 = call noundef nonnull align 8 dereferenceable(8) ptr @_ZN10chashtableIPN3euf5enodeENS0_6etable13cg_unary_hashENS3_11cg_unary_eqEE19insert_if_not_thereERKS2_(ptr noundef nonnull align 8 dereferenceable(64) %5, ptr noundef nonnull align 8 dereferenceable(8) %n.addr)
  br label %return

sw.bb4:                                           ; preds = %_ZN3euf6etable9get_tableEPNS_5enodeE.exit
  %and5 = and i64 %3, -8
  %6 = inttoptr i64 %and5 to ptr
  %call6 = call noundef nonnull align 8 dereferenceable(8) ptr @_ZN10chashtableIPN3euf5enodeENS0_6etable14cg_binary_hashENS3_12cg_binary_eqEE19insert_if_not_thereERKS2_(ptr noundef nonnull align 8 dereferenceable(64) %6, ptr noundef nonnull align 8 dereferenceable(8) %n.addr)
  br label %return

sw.bb8:                                           ; preds = %_ZN3euf6etable9get_tableEPNS_5enodeE.exit
  %m_commutativity = getelementptr inbounds i8, ptr %this, i64 8
  store i8 0, ptr %m_commutativity, align 8
  %and9 = and i64 %3, -8
  %7 = inttoptr i64 %and9 to ptr
  %call10 = call noundef nonnull align 8 dereferenceable(8) ptr @_ZN10chashtableIPN3euf5enodeENS0_6etable12cg_comm_hashENS3_10cg_comm_eqEE19insert_if_not_thereERKS2_(ptr noundef nonnull align 8 dereferenceable(72) %7, ptr noundef nonnull align 8 dereferenceable(8) %n.addr)
  %8 = load i8, ptr %m_commutativity, align 8
  %9 = and i8 %8, 1
  br label %return

sw.default:                                       ; preds = %_ZN3euf6etable9get_tableEPNS_5enodeE.exit
  %and12 = and i64 %3, -8
  %10 = inttoptr i64 %and12 to ptr
  %call13 = call noundef nonnull align 8 dereferenceable(8) ptr @_ZN10chashtableIPN3euf5enodeENS0_6etable7cg_hashENS3_5cg_eqEE19insert_if_not_thereERKS2_(ptr noundef nonnull align 8 dereferenceable(64) %10, ptr noundef nonnull align 8 dereferenceable(8) %n.addr)
  br label %return

return:                                           ; preds = %sw.default, %sw.bb8, %sw.bb4, %sw.bb
  %retval.sroa.0.0.in = phi ptr [ %call13, %sw.default ], [ %call10, %sw.bb8 ], [ %call6, %sw.bb4 ], [ %call3, %sw.bb ]
  %retval.sroa.5.0 = phi i8 [ 0, %sw.default ], [ %9, %sw.bb8 ], [ 0, %sw.bb4 ], [ 0, %sw.bb ]
  %retval.sroa.0.0 = load ptr, ptr %retval.sroa.0.0.in, align 8
  %.fca.0.insert = insertvalue { ptr, i8 } poison, ptr %retval.sroa.0.0, 0
  %.fca.1.insert = insertvalue { ptr, i8 } %.fca.0.insert, i8 %retval.sroa.5.0, 1
  ret { ptr, i8 } %.fca.1.insert
}